; ModuleID = '43/569.c'
source_filename = "43/569.c"
target datalayout = "e-m:e-p270:32:32-p271:32:32-p272:64:64-i64:64-f80:128-n8:16:32:64-S128"
target triple = "x86_64-pc-linux-gnu"

@.str = private unnamed_addr constant [3 x i8] c"%d\00", align 1
@.str.1 = private unnamed_addr constant [7 x i8] c"%d %d\0A\00", align 1

; Function Attrs: noinline nounwind uwtable
define dso_local void @main() #0 {
  %1 = alloca i32, align 4
  %2 = alloca i32, align 4
  %3 = alloca i32, align 4
  %4 = alloca i32, align 4
  %5 = alloca i32, align 4
  %6 = call i32 (i8*, ...) @__isoc99_scanf(i8* getelementptr inbounds ([3 x i8], [3 x i8]* @.str, i64 0, i64 0), i32* %3)
  store i32 3, i32* %1, align 4
  br label %7

7:                                                ; preds = %70, %0
  %8 = load i32, i32* %1, align 4
  %9 = load i32, i32* %3, align 4
  %10 = sdiv i32 %9, 2
  %11 = icmp sle i32 %8, %10
  br i1 %11, label %12, label %73

12:                                               ; preds = %7
  %13 = load i32, i32* %3, align 4
  %14 = load i32, i32* %1, align 4
  %15 = sub nsw i32 %13, %14
  store i32 %15, i32* %2, align 4
  store i32 2, i32* %4, align 4
  br label %16

16:                                               ; preds = %30, %12
  %17 = load i32, i32* %4, align 4
  %18 = sitofp i32 %17 to double
  %19 = load i32, i32* %1, align 4
  %20 = sitofp i32 %19 to double
  %21 = call double @sqrt(double %20) #3
  %22 = fcmp ole double %18, %21
  br i1 %22, label %23, label %33

23:                                               ; preds = %16
  %24 = load i32, i32* %1, align 4
  %25 = load i32, i32* %4, align 4
  %26 = srem i32 %24, %25
  %27 = icmp eq i32 %26, 0
  br i1 %27, label %28, label %29

28:                                               ; preds = %23
  br label %33

29:                                               ; preds = %23
  br label %30

30:                                               ; preds = %29
  %31 = load i32, i32* %4, align 4
  %32 = add nsw i32 %31, 1
  store i32 %32, i32* %4, align 4
  br label %16

33:                                               ; preds = %28, %16
  store i32 2, i32* %5, align 4
  br label %34

34:                                               ; preds = %48, %33
  %35 = load i32, i32* %5, align 4
  %36 = sitofp i32 %35 to double
  %37 = load i32, i32* %2, align 4
  %38 = sitofp i32 %37 to double
  %39 = call double @sqrt(double %38) #3
  %40 = fcmp ole double %36, %39
  br i1 %40, label %41, label %51

41:                                               ; preds = %34
  %42 = load i32, i32* %2, align 4
  %43 = load i32, i32* %5, align 4
  %44 = srem i32 %42, %43
  %45 = icmp eq i32 %44, 0
  br i1 %45, label %46, label %47

46:                                               ; preds = %41
  br label %51

47:                                               ; preds = %41
  br label %48

48:                                               ; preds = %47
  %49 = load i32, i32* %5, align 4
  %50 = add nsw i32 %49, 1
  store i32 %50, i32* %5, align 4
  br label %34

51:                                               ; preds = %46, %34
  %52 = load i32, i32* %4, align 4
  %53 = sitofp i32 %52 to double
  %54 = load i32, i32* %1, align 4
  %55 = sitofp i32 %54 to double
  %56 = call double @sqrt(double %55) #3
  %57 = fcmp ogt double %53, %56
  br i1 %57, label %58, label %69

58:                                               ; preds = %51
  %59 = load i32, i32* %5, align 4
  %60 = sitofp i32 %59 to double
  %61 = load i32, i32* %2, align 4
  %62 = sitofp i32 %61 to double
  %63 = call double @sqrt(double %62) #3
  %64 = fcmp ogt double %60, %63
  br i1 %64, label %65, label %69

65:                                               ; preds = %58
  %66 = load i32, i32* %1, align 4
  %67 = load i32, i32* %2, align 4
  %68 = call i32 (i8*, ...) @printf(i8* getelementptr inbounds ([7 x i8], [7 x i8]* @.str.1, i64 0, i64 0), i32 %66, i32 %67)
  br label %69

69:                                               ; preds = %65, %58, %51
  br label %70

70:                                               ; preds = %69
  %71 = load i32, i32* %1, align 4
  %72 = add nsw i32 %71, 1
  store i32 %72, i32* %1, align 4
  br label %7

73:                                               ; preds = %7
  ret void
}

declare dso_local i32 @__isoc99_scanf(i8*, ...) #1

; Function Attrs: nounwind
declare dso_local double @sqrt(double) #2

declare dso_local i32 @printf(i8*, ...) #1


!llvm.module.flags = !{!0}
!llvm.ident = !{!1}

!0 = !{i32 1, !"wchar_size", i32 4}
!1 = !{!"clang version 10.0.0-4ubuntu1 "}
